(idataObjects
Module
p0
(dp1
S'levels'
p2
(lp3
(idataObjects
Level
p4
(dp5
S'problem'
p6
I0
sS'problems'
p7
(lp8
(idataObjects
Problem
p9
(dp10
S'question'
p11
S'alpha'
p12
sS'solution'
p13
S'a'
p14
sba(idataObjects
Problem
p15
(dp16
g11
S'bravo'
p17
sg13
S'b'
p18
sba(idataObjects
Problem
p19
(dp20
g11
S'charlie'
p21
sg13
S'c'
p22
sba(idataObjects
Problem
p23
(dp24
g11
S'delta'
p25
sg13
S'd'
p26
sba(idataObjects
Problem
p27
(dp28
g11
S'echo'
p29
sg13
S'e'
p30
sba(idataObjects
Problem
p31
(dp32
g11
S'foxtrot'
p33
sg13
S'f'
p34
sba(idataObjects
Problem
p35
(dp36
g11
S'golf'
p37
sg13
S'g'
p38
sba(idataObjects
Problem
p39
(dp40
g11
S'hotel'
p41
sg13
S'h'
p42
sba(idataObjects
Problem
p43
(dp44
g11
S'india'
p45
sg13
S'i'
p46
sba(idataObjects
Problem
p47
(dp48
g11
S'juliett'
p49
sg13
S'j'
p50
sba(idataObjects
Problem
p51
(dp52
g11
S'kilo'
p53
sg13
S'k'
p54
sba(idataObjects
Problem
p55
(dp56
g11
S'lima'
p57
sg13
S'l'
p58
sba(idataObjects
Problem
p59
(dp60
g11
S'mike'
p61
sg13
S'm'
p62
sba(idataObjects
Problem
p63
(dp64
g11
S'november'
p65
sg13
S'n'
p66
sba(idataObjects
Problem
p67
(dp68
g11
S'oscar'
p69
sg13
S'o'
p70
sba(idataObjects
Problem
p71
(dp72
g11
S'papa'
p73
sg13
S'p'
p74
sba(idataObjects
Problem
p75
(dp76
g11
S'quebec'
p77
sg13
S'q'
p78
sba(idataObjects
Problem
p79
(dp80
g11
S'romeo'
p81
sg13
S'r'
p82
sba(idataObjects
Problem
p83
(dp84
g11
S'sierra'
p85
sg13
S's'
p86
sba(idataObjects
Problem
p87
(dp88
g11
S'tango'
p89
sg13
S't'
p90
sba(idataObjects
Problem
p91
(dp92
g11
S'uniform'
p93
sg13
S'u'
p94
sba(idataObjects
Problem
p95
(dp96
g11
S'victor'
p97
sg13
S'v'
p98
sba(idataObjects
Problem
p99
(dp100
g11
S'whiskey'
p101
sg13
S'w'
p102
sba(idataObjects
Problem
p103
(dp104
g11
S'x-ray'
p105
sg13
S'x'
p106
sba(idataObjects
Problem
p107
(dp108
g11
S'yankee'
p109
sg13
S'y'
p110
sba(idataObjects
Problem
p111
(dp112
g11
S'zulu'
p113
sg13
S'z'
p114
sbasba(idataObjects
Level
p115
(dp116
g6
I0
sg7
(lp117
(idataObjects
Problem
p118
(dp119
g11
S'a'
p120
sg13
S'alpha'
p121
sba(idataObjects
Problem
p122
(dp123
g11
S'b'
p124
sg13
S'bravo'
p125
sba(idataObjects
Problem
p126
(dp127
g11
S'c'
p128
sg13
S'charlie'
p129
sba(idataObjects
Problem
p130
(dp131
g11
S'd'
p132
sg13
S'delta'
p133
sba(idataObjects
Problem
p134
(dp135
g11
S'e'
p136
sg13
S'echo'
p137
sba(idataObjects
Problem
p138
(dp139
g11
S'f'
p140
sg13
S'foxtrot'
p141
sba(idataObjects
Problem
p142
(dp143
g11
S'g'
p144
sg13
S'golf'
p145
sba(idataObjects
Problem
p146
(dp147
g11
S'h'
p148
sg13
S'hotel'
p149
sba(idataObjects
Problem
p150
(dp151
g11
S'i'
p152
sg13
S'india'
p153
sba(idataObjects
Problem
p154
(dp155
g11
S'j'
p156
sg13
S'juliett'
p157
sba(idataObjects
Problem
p158
(dp159
g11
S'k'
p160
sg13
S'kilo'
p161
sba(idataObjects
Problem
p162
(dp163
g11
S'l'
p164
sg13
S'lima'
p165
sba(idataObjects
Problem
p166
(dp167
g11
S'm'
p168
sg13
S'mike'
p169
sba(idataObjects
Problem
p170
(dp171
g11
S'n'
p172
sg13
S'november'
p173
sba(idataObjects
Problem
p174
(dp175
g11
S'o'
p176
sg13
S'oscar'
p177
sba(idataObjects
Problem
p178
(dp179
g11
S'p'
p180
sg13
S'papa'
p181
sba(idataObjects
Problem
p182
(dp183
g11
S'q'
p184
sg13
S'quebec'
p185
sba(idataObjects
Problem
p186
(dp187
g11
S'r'
p188
sg13
S'romeo'
p189
sba(idataObjects
Problem
p190
(dp191
g11
S's'
p192
sg13
S'sierra'
p193
sba(idataObjects
Problem
p194
(dp195
g11
S't'
p196
sg13
S'tango'
p197
sba(idataObjects
Problem
p198
(dp199
g11
S'u'
p200
sg13
S'uniform'
p201
sba(idataObjects
Problem
p202
(dp203
g11
S'v'
p204
sg13
S'victor'
p205
sba(idataObjects
Problem
p206
(dp207
g11
S'w'
p208
sg13
S'whiskey'
p209
sba(idataObjects
Problem
p210
(dp211
g11
S'x'
p212
sg13
S'x-ray'
p213
sba(idataObjects
Problem
p214
(dp215
g11
S'y'
p216
sg13
S'yankee'
p217
sba(idataObjects
Problem
p218
(dp219
g11
S'z'
p220
sg13
S'zulu'
p221
sbasba(idataObjects
Level
p222
(dp223
g6
I0
sg7
(lp224
(idataObjects
Problem
p225
(dp226
g11
S'ate'
p227
sg13
S'alpha tango echo'
p228
sba(idataObjects
Problem
p229
(dp230
g11
S'bet'
p231
sg13
S'bravo echo tango'
p232
sba(idataObjects
Problem
p233
(dp234
g11
S'can'
p235
sg13
S'charlie alpha november'
p236
sba(idataObjects
Problem
p237
(dp238
g11
S'doe'
p239
sg13
S'delta oscar echo'
p240
sba(idataObjects
Problem
p241
(dp242
g11
S'ewe'
p243
sg13
S'echo whiskey echo'
p244
sba(idataObjects
Problem
p245
(dp246
g11
S'fog'
p247
sg13
S'foxtrot oscar golf'
p248
sba(idataObjects
Problem
p249
(dp250
g11
S'gun'
p251
sg13
S'golf uniform november'
p252
sba(idataObjects
Problem
p253
(dp254
g11
S'hex'
p255
sg13
S'hex echo x-ray'
p256
sba(idataObjects
Problem
p257
(dp258
g11
S'ice'
p259
sg13
S'india charlie echo'
p260
sba(idataObjects
Problem
p261
(dp262
g11
S'jot'
p263
sg13
S'juliett oscar tango'
p264
sba(idataObjects
Problem
p265
(dp266
g11
S'kin'
p267
sg13
S'kilo india november'
p268
sba(idataObjects
Problem
p269
(dp270
g11
S'lap'
p271
sg13
S'lima alpha papa'
p272
sba(idataObjects
Problem
p273
(dp274
g11
S'mud'
p275
sg13
S'mike uniform delta'
p276
sba(idataObjects
Problem
p277
(dp278
g11
S'not'
p279
sg13
S'november oscar tango'
p280
sba(idataObjects
Problem
p281
(dp282
g11
S'ore'
p283
sg13
S'oscar romeo echo'
p284
sba(idataObjects
Problem
p285
(dp286
g11
S'pit'
p287
sg13
S'papa india tango'
p288
sba(idataObjects
Problem
p289
(dp290
g11
S'quo'
p291
sg13
S'quebec uniform oscar'
p292
sba(idataObjects
Problem
p293
(dp294
g11
S'rat'
p295
sg13
S'romeo alpha tango'
p296
sba(idataObjects
Problem
p297
(dp298
g11
S'sit'
p299
sg13
S'sierra india tango'
p300
sba(idataObjects
Problem
p301
(dp302
g11
S'tin'
p303
sg13
S'tango india november'
p304
sba(idataObjects
Problem
p305
(dp306
g11
S'urn'
p307
sg13
S'uniform romeo november'
p308
sba(idataObjects
Problem
p309
(dp310
g11
S'van'
p311
sg13
S'victor alpha november'
p312
sba(idataObjects
Problem
p313
(dp314
g11
S'wet'
p315
sg13
S'whiskey echo tango'
p316
sba(idataObjects
Problem
p317
(dp318
g11
S'x-mas'
p319
sg13
S'x-ray mike alpha sierra'
p320
sba(idataObjects
Problem
p321
(dp322
g11
S'you'
p323
sg13
S'yankee oscar uniform'
p324
sba(idataObjects
Problem
p325
(dp326
g11
S'zen'
p327
sg13
S'zulu echo november'
p328
sbasbasS'name'
p329
S'NSA'
p330
sb.